A51 MACRO ASSEMBLER  MAIN                                                                 03/27/2021 14:07:12 PAGE     1


MACRO ASSEMBLER A51 V8.2.7.0
OBJECT MODULE PLACED IN .\Objects\main.obj
ASSEMBLER INVOKED BY: D:\C51\BIN\A51.EXE main.asm SET(SMALL) DEBUG PRINT(.\Listings\main.lst) OBJECT(.\Objects\main.obj)
                       EP

LOC  OBJ            LINE     SOURCE

                       1     ;====================================================================
                       2     ; Main.asm file generated by New Project wizard
                       3     ;
                       4     ; Created:   Wed Nov 18 2020
                       5     ; Processor: AT89C51
                       6     ; Compiler:  ASEM-51 (Proteus)
                       7     ;====================================================================
                       8     ;#include <REGX51.H>
                       9     
                      10     
                      11     
                      12     
                      13     
0000                  14           org   0000h
0000 2100             15           jmp   MAIN
                      16     
                      17     
0100                  18           org   0100h
0100                  19     MAIN:   
0100 12010E           20             lcall nhapnhay
0103 120131           21             lcall traiphai
0106 120154           22             lcall nhayxenke
0109 12017B           23             lcall sangtungport
010C 80F2             24             sjmp    main
010E                  25     nhapnhay:
010E 7B05             26             mov r3, #5h
0110                  27     loop:
0110 758000           28             mov p0, #00h
0113 759000           29             mov p1, #00h
0116 75A000           30             mov p2, #00h
0119 75B000           31             mov p3, #00h
011C 1201CB           32             lcall delay
011F 7590FF           33             mov p1, #0ffh
0122 75A0FF           34             mov p2, #0ffh
0125 75B0FF           35             mov p3, #0ffh
0128 7580FF           36             mov p0, #0ffh
012B 1201CB           37             lcall delay
012E DBE0             38             djnz r3,loop
0130 22               39     ret
                      40     
                      41     ;############################
0131                  42     traiphai:
0131 7B05             43             mov r3, #5h
0133                  44     loopa:
0133 758000           45             mov p0, #00h
0136 759000           46             mov p1, #00h
0139 75A0FF           47             mov p2, #0ffh
013C 75B0FF           48             mov p3, #0ffh
013F 1201CB           49             lcall delay
0142 7580FF           50             mov p0, #0ffh
0145 7590FF           51             mov p1, #0ffh
0148 75A000           52             mov p2, #00h
014B 75B000           53             mov p3, #00h
014E 1201CB           54             lcall delay
0151 DBE0             55             djnz r3,loopa
0153 22               56     ret
                      57     ;############################
A51 MACRO ASSEMBLER  MAIN                                                                 03/27/2021 14:07:12 PAGE     2

                      58     
0154                  59     nhayxenke:
0154 7B05             60             mov r3, #5h 
0156                  61     loopb:  
                      62        
0156 7590AA           63             mov p1,#0aah
0159 75A055           64             mov p2,#55h
015C 75B0AA           65             mov p3,#0aah
015F 758055           66             mov p0,#55h
0162 7400             67             mov a,#00h
0164 1201CB           68             lcall delay       
0167 759055           69             mov p1,#55h
016A 75A0AA           70             mov p2,#0aah
016D 75B055           71             mov p3,#55h
0170 7580AA           72             mov p0,#0aah
0173 7400             73             mov a,#00h
0175 1201CB           74             lcall delay
                      75      
0178 DBDC             76             djnz r3,loopb
017A 22               77         ret
                      78     ;############################
017B                  79     sangtungport:
017B 7B02             80              mov r3, #2h
017D                  81     loopc:
                      82     
017D 7590FF           83             mov p1, #0ffh
0180 75A0FF           84             mov p2, #0ffh
0183 75B0FF           85             mov p3, #0ffh
0186 7580FF           86             mov p0, #0ffh
0189 1201D9           87             lcall delay2
                      88             
018C 7590FF           89             mov p1, #0ffh
018F 75B0FF           90             mov p3, #0ffh
0192 75A0FF           91             mov p2, #0ffh
0195 758000           92             mov p0, #00h
0198 1201D9           93             lcall delay2
                      94             
019B 75A0FF           95             mov p2, #0ffh
019E 7580FF           96             mov p0, #0ffh
01A1 75B0FF           97             mov p3, #0ffh
01A4 759000           98             mov p1, #00h
01A7 1201D9           99             lcall delay2
                     100             
01AA 75B0FF          101             mov p3, #0ffh
01AD 7580FF          102             mov p0, #0ffh
01B0 7590FF          103             mov p1, #0ffh
01B3 75A000          104             mov p2, #00h
01B6 1201D9          105             lcall delay2
                     106             
01B9 75A0FF          107             mov p2, #0ffh
01BC 7580FF          108             mov p0, #0ffh
01BF 7590FF          109             mov p1, #0ffh
01C2 75B000          110             mov p3, #00h
01C5 1201D9          111             lcall delay2
                     112             
01C8 DBB3            113             djnz r3,loopc
01CA 22              114     ret
                     115     ;------------------------------------CHUONG TRINH DELAY-----------------------------------
                     116     
01CB                 117     delay:
01CB 79FF            118     mov r1,#255
01CD                 119     loop1:
01CD 7AFF            120     mov r2,#255
01CF                 121     loop2:
01CF 00              122     nop
01D0 00              123     nop
A51 MACRO ASSEMBLER  MAIN                                                                 03/27/2021 14:07:12 PAGE     3

01D1 00              124     nop
01D2 00              125     nop
01D3 00              126     nop
01D4 DAF9            127     djnz r2,loop2
01D6 D9F5            128     djnz r1,loop1
01D8 22              129     ret
                     130     ;############################
                     131     
01D9                 132     delay2:
01D9 79FF            133     mov r1,#255
01DB                 134     loop3:
01DB 7AFF            135     mov r2,#255
01DD                 136     loop4:
01DD 00              137     nop
01DE 00              138     nop
01DF 00              139     nop
01E0 00              140     nop
01E1 00              141     nop
01E2 00              142     nop
01E3 00              143     nop
01E4 DAF7            144     djnz r2,loop4
01E6 D9F3            145     djnz r1,loop3
01E8 22              146     ret
                     147     
                     148     ;====================================================================
                     149           END
A51 MACRO ASSEMBLER  MAIN                                                                 03/27/2021 14:07:12 PAGE     4

SYMBOL TABLE LISTING
------ ----- -------


N A M E             T Y P E  V A L U E   ATTRIBUTES

DELAY. . . . . . .  C ADDR   01CBH   A   
DELAY2 . . . . . .  C ADDR   01D9H   A   
LOOP . . . . . . .  C ADDR   0110H   A   
LOOP1. . . . . . .  C ADDR   01CDH   A   
LOOP2. . . . . . .  C ADDR   01CFH   A   
LOOP3. . . . . . .  C ADDR   01DBH   A   
LOOP4. . . . . . .  C ADDR   01DDH   A   
LOOPA. . . . . . .  C ADDR   0133H   A   
LOOPB. . . . . . .  C ADDR   0156H   A   
LOOPC. . . . . . .  C ADDR   017DH   A   
MAIN . . . . . . .  C ADDR   0100H   A   
NHAPNHAY . . . . .  C ADDR   010EH   A   
NHAYXENKE. . . . .  C ADDR   0154H   A   
P0 . . . . . . . .  D ADDR   0080H   A   
P1 . . . . . . . .  D ADDR   0090H   A   
P2 . . . . . . . .  D ADDR   00A0H   A   
P3 . . . . . . . .  D ADDR   00B0H   A   
SANGTUNGPORT . . .  C ADDR   017BH   A   
TRAIPHAI . . . . .  C ADDR   0131H   A   


REGISTER BANK(S) USED: 0 


ASSEMBLY COMPLETE.  0 WARNING(S), 0 ERROR(S)
